target datalayout = "e-m:e-p270:32:32-p271:32:32-p272:64:64-i64:64-i128:128-f80:128-n8:16:32:64-S128"
target triple = "x86_64-pc-linux-gnu"

%struct.AVFilterContext = type { ptr, ptr, ptr, ptr, ptr, i32, ptr, ptr, i32, ptr, ptr, i32, i32, ptr, ptr, ptr, ptr, i32, ptr, i32, i32 }
%struct.AudioNEqualizerContext = type { ptr, ptr, ptr, i32, i32, i32, double, i32, i32, i32, ptr, ptr }

@query_formats.pix_fmts = internal constant [2 x i32] [i32 26, i32 -1], align 4
@query_formats.sample_fmts = internal constant [2 x i32] [i32 9, i32 -1], align 4

; Function Attrs: nounwind uwtable
define internal i32 @query_formats(ptr noundef %0, ptr noundef %1, ptr noundef %2) #1 {
  %4 = alloca i32, align 4
  %5 = alloca ptr, align 8
  %6 = alloca ptr, align 8
  %7 = alloca ptr, align 8
  %8 = alloca ptr, align 8
  %9 = alloca i32, align 4
  %10 = alloca i32, align 4
  store ptr %0, ptr %5, align 8, !tbaa !4
  store ptr %1, ptr %6, align 8, !tbaa !43
  store ptr %2, ptr %7, align 8, !tbaa !43
  call void @llvm.lifetime.start.p0(i64 8, ptr %8) #13
  %11 = load ptr, ptr %5, align 8, !tbaa !4
  %12 = getelementptr inbounds nuw %struct.AVFilterContext, ptr %11, i32 0, i32 9
  %13 = load ptr, ptr %12, align 8, !tbaa !9
  store ptr %13, ptr %8, align 8, !tbaa !22
  call void @llvm.lifetime.start.p0(i64 4, ptr %9) #13
  %14 = load ptr, ptr %8, align 8, !tbaa !22
  %15 = getelementptr inbounds nuw %struct.AudioNEqualizerContext, ptr %14, i32 0, i32 3
  %16 = load i32, ptr %15, align 8, !tbaa !32
  %17 = icmp ne i32 %16, 0
  br i1 %17, label %18, label %28

18:                                               ; preds = %3
  %19 = load ptr, ptr %5, align 8, !tbaa !4
  %20 = load ptr, ptr %6, align 8, !tbaa !43
  %21 = load ptr, ptr %7, align 8, !tbaa !43
  %22 = call i32 @ff_set_common_formats_from_list2(ptr noundef %19, ptr noundef %20, ptr noundef %21, ptr noundef @query_formats.pix_fmts)
  store i32 %22, ptr %9, align 4, !tbaa !29
  %23 = load i32, ptr %9, align 4, !tbaa !29
  %24 = icmp slt i32 %23, 0
  br i1 %24, label %25, label %27

25:                                               ; preds = %18
  %26 = load i32, ptr %9, align 4, !tbaa !29
  store i32 %26, ptr %4, align 4
  store i32 1, ptr %10, align 4
  br label %38

27:                                               ; preds = %18
  br label %28

28:                                               ; preds = %27, %3
  %29 = load ptr, ptr %5, align 8, !tbaa !4
  %30 = load ptr, ptr %6, align 8, !tbaa !43
  %31 = load ptr, ptr %7, align 8, !tbaa !43
  %32 = call i32 @ff_set_common_formats_from_list2(ptr noundef %29, ptr noundef %30, ptr noundef %31, ptr noundef @query_formats.sample_fmts)
  store i32 %32, ptr %9, align 4, !tbaa !29
  %33 = load i32, ptr %9, align 4, !tbaa !29
  %34 = icmp slt i32 %33, 0
  br i1 %34, label %35, label %37

35:                                               ; preds = %28
  %36 = load i32, ptr %9, align 4, !tbaa !29
  store i32 %36, ptr %4, align 4
  store i32 1, ptr %10, align 4
  br label %38

37:                                               ; preds = %28
  store i32 0, ptr %4, align 4
  store i32 1, ptr %10, align 4
  br label %38

38:                                               ; preds = %37, %35, %25
  call void @llvm.lifetime.end.p0(i64 4, ptr %9) #13
  call void @llvm.lifetime.end.p0(i64 8, ptr %8) #13
  %39 = load i32, ptr %4, align 4
  ret i32 %39
}