; Function Attrs: nounwind uwtable
define internal range(i32 -2147483648, 1) i32 @query_formats(ptr noundef %0, ptr noundef %1, ptr noundef %2) #1 {
  %4 = getelementptr inbounds nuw i8, ptr %0, i64 72
  %5 = load ptr, ptr %4, align 8, !tbaa !4
  %6 = getelementptr inbounds nuw i8, ptr %5, i64 24
  %7 = load i32, ptr %6, align 8, !tbaa !22
  %.not = icmp eq i32 %7, 0
  br i1 %.not, label %11, label %8

8:                                                ; preds = %3
  %9 = tail call i32 @ff_set_common_formats_from_list2(ptr noundef nonnull %0, ptr noundef %1, ptr noundef %2, ptr noundef nonnull @query_formats.pix_fmts) #15
  %10 = icmp slt i32 %9, 0
  br i1 %10, label %13, label %11

11:                                               ; preds = %8, %3
  %12 = tail call i32 @ff_set_common_formats_from_list2(ptr noundef nonnull %0, ptr noundef %1, ptr noundef %2, ptr noundef nonnull @query_formats.sample_fmts) #15
  %. = tail call i32 @llvm.smin.i32(i32 %12, i32 0)
  br label %13

13:                                               ; preds = %11, %8
  %.0 = phi i32 [ %9, %8 ], [ %., %11 ]
  ret i32 %.0
}